MPLINK 5.09, LINKER
Linker Map File - Created Tue Apr 04 09:06:43 2023

                                 Section Info
                  Section       Type    Address   Location Size(Bytes)
                ---------  ---------  ---------  ---------  ---------
                   .org_0       code   0x000000    program   0x000004
                   .cinit    romdata   0x000004    program   0x000002
                   .org_1       code   0x000008    program   0x0010fe
.config_300001_BUILD/DEFAULT/PRODUCTION/_EXT/20    romdata   0x300001    program   0x000001
.config_300003_BUILD/DEFAULT/PRODUCTION/_EXT/20    romdata   0x300003    program   0x000001



                              Program Memory Usage 
                               Start         End      
                           ---------   ---------      
                            0x000000    0x000005      
                            0x000008    0x001105      
                            0x300001    0x300001      
                            0x300003    0x300003      
            4358 out of 33048 program addresses used, program memory utilization is 13%



                              Symbols - Sorted by Name
                     Name    Address   Location    Storage File                     
                ---------  ---------  ---------  --------- ---------                
                ADCpoll_l   0x000f84    program     static C:\Users\tinom\OneDrive\Desktop\EMK310\Practical 1 2023\P1 Code.X\newpic_8b_general.asm
                ADCpoll_m   0x000f9a    program     static C:\Users\tinom\OneDrive\Desktop\EMK310\Practical 1 2023\P1 Code.X\newpic_8b_general.asm
                ADCpoll_r   0x000fb0    program     static C:\Users\tinom\OneDrive\Desktop\EMK310\Practical 1 2023\P1 Code.X\newpic_8b_general.asm
                SSD_clear   0x000fd2    program     static C:\Users\tinom\OneDrive\Desktop\EMK310\Practical 1 2023\P1 Code.X\newpic_8b_general.asm
              SSD_display   0x000fc6    program     static C:\Users\tinom\OneDrive\Desktop\EMK310\Practical 1 2023\P1 Code.X\newpic_8b_general.asm
                    Setup   0x000012    program     static C:\Users\tinom\OneDrive\Desktop\EMK310\Practical 1 2023\P1 Code.X\newpic_8b_general.asm
              cal_black_l   0x000298    program     static C:\Users\tinom\OneDrive\Desktop\EMK310\Practical 1 2023\P1 Code.X\newpic_8b_general.asm
              cal_black_m   0x000400    program     static C:\Users\tinom\OneDrive\Desktop\EMK310\Practical 1 2023\P1 Code.X\newpic_8b_general.asm
              cal_black_r   0x000568    program     static C:\Users\tinom\OneDrive\Desktop\EMK310\Practical 1 2023\P1 Code.X\newpic_8b_general.asm
               cal_blue_l   0x0002f2    program     static C:\Users\tinom\OneDrive\Desktop\EMK310\Practical 1 2023\P1 Code.X\newpic_8b_general.asm
               cal_blue_m   0x00045a    program     static C:\Users\tinom\OneDrive\Desktop\EMK310\Practical 1 2023\P1 Code.X\newpic_8b_general.asm
               cal_blue_r   0x0005c2    program     static C:\Users\tinom\OneDrive\Desktop\EMK310\Practical 1 2023\P1 Code.X\newpic_8b_general.asm
              cal_green_l   0x00034c    program     static C:\Users\tinom\OneDrive\Desktop\EMK310\Practical 1 2023\P1 Code.X\newpic_8b_general.asm
              cal_green_m   0x0004b4    program     static C:\Users\tinom\OneDrive\Desktop\EMK310\Practical 1 2023\P1 Code.X\newpic_8b_general.asm
              cal_green_r   0x00061c    program     static C:\Users\tinom\OneDrive\Desktop\EMK310\Practical 1 2023\P1 Code.X\newpic_8b_general.asm
                cal_red_l   0x0003a6    program     static C:\Users\tinom\OneDrive\Desktop\EMK310\Practical 1 2023\P1 Code.X\newpic_8b_general.asm
                cal_red_m   0x00050e    program     static C:\Users\tinom\OneDrive\Desktop\EMK310\Practical 1 2023\P1 Code.X\newpic_8b_general.asm
                cal_red_r   0x000676    program     static C:\Users\tinom\OneDrive\Desktop\EMK310\Practical 1 2023\P1 Code.X\newpic_8b_general.asm
calibration_buffer_black_l   0x00028a    program     static C:\Users\tinom\OneDrive\Desktop\EMK310\Practical 1 2023\P1 Code.X\newpic_8b_general.asm
calibration_buffer_black_m   0x0003f2    program     static C:\Users\tinom\OneDrive\Desktop\EMK310\Practical 1 2023\P1 Code.X\newpic_8b_general.asm
calibration_buffer_black_r   0x00055a    program     static C:\Users\tinom\OneDrive\Desktop\EMK310\Practical 1 2023\P1 Code.X\newpic_8b_general.asm
calibration_buffer_blue_l   0x0002e4    program     static C:\Users\tinom\OneDrive\Desktop\EMK310\Practical 1 2023\P1 Code.X\newpic_8b_general.asm
calibration_buffer_blue_m   0x00044c    program     static C:\Users\tinom\OneDrive\Desktop\EMK310\Practical 1 2023\P1 Code.X\newpic_8b_general.asm
calibration_buffer_blue_r   0x0005b4    program     static C:\Users\tinom\OneDrive\Desktop\EMK310\Practical 1 2023\P1 Code.X\newpic_8b_general.asm
calibration_buffer_green_l   0x00033e    program     static C:\Users\tinom\OneDrive\Desktop\EMK310\Practical 1 2023\P1 Code.X\newpic_8b_general.asm
calibration_buffer_green_m   0x0004a6    program     static C:\Users\tinom\OneDrive\Desktop\EMK310\Practical 1 2023\P1 Code.X\newpic_8b_general.asm
calibration_buffer_green_r   0x00060e    program     static C:\Users\tinom\OneDrive\Desktop\EMK310\Practical 1 2023\P1 Code.X\newpic_8b_general.asm
 calibration_buffer_red_l   0x000398    program     static C:\Users\tinom\OneDrive\Desktop\EMK310\Practical 1 2023\P1 Code.X\newpic_8b_general.asm
 calibration_buffer_red_m   0x000500    program     static C:\Users\tinom\OneDrive\Desktop\EMK310\Practical 1 2023\P1 Code.X\newpic_8b_general.asm
 calibration_buffer_red_r   0x000668    program     static C:\Users\tinom\OneDrive\Desktop\EMK310\Practical 1 2023\P1 Code.X\newpic_8b_general.asm
            check_black_l   0x000a00    program     static C:\Users\tinom\OneDrive\Desktop\EMK310\Practical 1 2023\P1 Code.X\newpic_8b_general.asm
            check_black_m   0x000a20    program     static C:\Users\tinom\OneDrive\Desktop\EMK310\Practical 1 2023\P1 Code.X\newpic_8b_general.asm
            check_black_r   0x000a36    program     static C:\Users\tinom\OneDrive\Desktop\EMK310\Practical 1 2023\P1 Code.X\newpic_8b_general.asm
             check_blue_l   0x000a50    program     static C:\Users\tinom\OneDrive\Desktop\EMK310\Practical 1 2023\P1 Code.X\newpic_8b_general.asm
             check_blue_m   0x000a7a    program     static C:\Users\tinom\OneDrive\Desktop\EMK310\Practical 1 2023\P1 Code.X\newpic_8b_general.asm
             check_blue_r   0x000a9a    program     static C:\Users\tinom\OneDrive\Desktop\EMK310\Practical 1 2023\P1 Code.X\newpic_8b_general.asm
            check_green_l   0x000abe    program     static C:\Users\tinom\OneDrive\Desktop\EMK310\Practical 1 2023\P1 Code.X\newpic_8b_general.asm
            check_green_m   0x000aec    program     static C:\Users\tinom\OneDrive\Desktop\EMK310\Practical 1 2023\P1 Code.X\newpic_8b_general.asm
            check_green_r   0x000b10    program     static C:\Users\tinom\OneDrive\Desktop\EMK310\Practical 1 2023\P1 Code.X\newpic_8b_general.asm
              check_red_l   0x000b34    program     static C:\Users\tinom\OneDrive\Desktop\EMK310\Practical 1 2023\P1 Code.X\newpic_8b_general.asm
              check_red_m   0x000b5e    program     static C:\Users\tinom\OneDrive\Desktop\EMK310\Practical 1 2023\P1 Code.X\newpic_8b_general.asm
              check_red_r   0x000b7e    program     static C:\Users\tinom\OneDrive\Desktop\EMK310\Practical 1 2023\P1 Code.X\newpic_8b_general.asm
              clear_RGB_l   0x0010e2    program     static C:\Users\tinom\OneDrive\Desktop\EMK310\Practical 1 2023\P1 Code.X\newpic_8b_general.asm
              clear_RGB_m   0x0010ee    program     static C:\Users\tinom\OneDrive\Desktop\EMK310\Practical 1 2023\P1 Code.X\newpic_8b_general.asm
              clear_RGB_r   0x0010fa    program     static C:\Users\tinom\OneDrive\Desktop\EMK310\Practical 1 2023\P1 Code.X\newpic_8b_general.asm
            clear_black_l   0x000a1e    program     static C:\Users\tinom\OneDrive\Desktop\EMK310\Practical 1 2023\P1 Code.X\newpic_8b_general.asm
            clear_black_m   0x000a34    program     static C:\Users\tinom\OneDrive\Desktop\EMK310\Practical 1 2023\P1 Code.X\newpic_8b_general.asm
            clear_black_r   0x000a4a    program     static C:\Users\tinom\OneDrive\Desktop\EMK310\Practical 1 2023\P1 Code.X\newpic_8b_general.asm
             clear_blue_l   0x000a78    program     static C:\Users\tinom\OneDrive\Desktop\EMK310\Practical 1 2023\P1 Code.X\newpic_8b_general.asm
             clear_blue_m   0x000a98    program     static C:\Users\tinom\OneDrive\Desktop\EMK310\Practical 1 2023\P1 Code.X\newpic_8b_general.asm
             clear_blue_r   0x000ab8    program     static C:\Users\tinom\OneDrive\Desktop\EMK310\Practical 1 2023\P1 Code.X\newpic_8b_general.asm
            clear_green_l   0x000ae6    program     static C:\Users\tinom\OneDrive\Desktop\EMK310\Practical 1 2023\P1 Code.X\newpic_8b_general.asm
            clear_green_m   0x000b0a    program     static C:\Users\tinom\OneDrive\Desktop\EMK310\Practical 1 2023\P1 Code.X\newpic_8b_general.asm
            clear_green_r   0x000b2e    program     static C:\Users\tinom\OneDrive\Desktop\EMK310\Practical 1 2023\P1 Code.X\newpic_8b_general.asm
              clear_red_l   0x000b5c    program     static C:\Users\tinom\OneDrive\Desktop\EMK310\Practical 1 2023\P1 Code.X\newpic_8b_general.asm
              clear_red_m   0x000b7c    program     static C:\Users\tinom\OneDrive\Desktop\EMK310\Practical 1 2023\P1 Code.X\newpic_8b_general.asm
              clear_red_r   0x000b9c    program     static C:\Users\tinom\OneDrive\Desktop\EMK310\Practical 1 2023\P1 Code.X\newpic_8b_general.asm
   colour_detector_buffer   0x0007da    program     static C:\Users\tinom\OneDrive\Desktop\EMK310\Practical 1 2023\P1 Code.X\newpic_8b_general.asm
             delay_loop_1   0x000f58    program     static C:\Users\tinom\OneDrive\Desktop\EMK310\Practical 1 2023\P1 Code.X\newpic_8b_general.asm
           delay_loop_333   0x000f6e    program     static C:\Users\tinom\OneDrive\Desktop\EMK310\Practical 1 2023\P1 Code.X\newpic_8b_general.asm
           detect_black_l   0x0006c2    program     static C:\Users\tinom\OneDrive\Desktop\EMK310\Practical 1 2023\P1 Code.X\newpic_8b_general.asm
       detect_black_l_isr   0x000e3c    program     static C:\Users\tinom\OneDrive\Desktop\EMK310\Practical 1 2023\P1 Code.X\newpic_8b_general.asm
           detect_black_m   0x000722    program     static C:\Users\tinom\OneDrive\Desktop\EMK310\Practical 1 2023\P1 Code.X\newpic_8b_general.asm
       detect_black_m_isr   0x000e9c    program     static C:\Users\tinom\OneDrive\Desktop\EMK310\Practical 1 2023\P1 Code.X\newpic_8b_general.asm
           detect_black_r   0x00077e    program     static C:\Users\tinom\OneDrive\Desktop\EMK310\Practical 1 2023\P1 Code.X\newpic_8b_general.asm
       detect_black_r_isr   0x000ef8    program     static C:\Users\tinom\OneDrive\Desktop\EMK310\Practical 1 2023\P1 Code.X\newpic_8b_general.asm
            detect_blue_l   0x0006de    program     static C:\Users\tinom\OneDrive\Desktop\EMK310\Practical 1 2023\P1 Code.X\newpic_8b_general.asm
        detect_blue_l_isr   0x000e58    program     static C:\Users\tinom\OneDrive\Desktop\EMK310\Practical 1 2023\P1 Code.X\newpic_8b_general.asm
            detect_blue_m   0x00073a    program     static C:\Users\tinom\OneDrive\Desktop\EMK310\Practical 1 2023\P1 Code.X\newpic_8b_general.asm
        detect_blue_m_isr   0x000eb4    program     static C:\Users\tinom\OneDrive\Desktop\EMK310\Practical 1 2023\P1 Code.X\newpic_8b_general.asm
            detect_blue_r   0x000796    program     static C:\Users\tinom\OneDrive\Desktop\EMK310\Practical 1 2023\P1 Code.X\newpic_8b_general.asm
        detect_blue_r_isr   0x000f10    program     static C:\Users\tinom\OneDrive\Desktop\EMK310\Practical 1 2023\P1 Code.X\newpic_8b_general.asm
           detect_green_l   0x0006f2    program     static C:\Users\tinom\OneDrive\Desktop\EMK310\Practical 1 2023\P1 Code.X\newpic_8b_general.asm
       detect_green_l_isr   0x000e6c    program     static C:\Users\tinom\OneDrive\Desktop\EMK310\Practical 1 2023\P1 Code.X\newpic_8b_general.asm
           detect_green_m   0x00074e    program     static C:\Users\tinom\OneDrive\Desktop\EMK310\Practical 1 2023\P1 Code.X\newpic_8b_general.asm
       detect_green_m_isr   0x000ec8    program     static C:\Users\tinom\OneDrive\Desktop\EMK310\Practical 1 2023\P1 Code.X\newpic_8b_general.asm
           detect_green_r   0x0007aa    program     static C:\Users\tinom\OneDrive\Desktop\EMK310\Practical 1 2023\P1 Code.X\newpic_8b_general.asm
       detect_green_r_isr   0x000f24    program     static C:\Users\tinom\OneDrive\Desktop\EMK310\Practical 1 2023\P1 Code.X\newpic_8b_general.asm
             detect_red_l   0x000706    program     static C:\Users\tinom\OneDrive\Desktop\EMK310\Practical 1 2023\P1 Code.X\newpic_8b_general.asm
         detect_red_l_isr   0x000e80    program     static C:\Users\tinom\OneDrive\Desktop\EMK310\Practical 1 2023\P1 Code.X\newpic_8b_general.asm
             detect_red_m   0x000762    program     static C:\Users\tinom\OneDrive\Desktop\EMK310\Practical 1 2023\P1 Code.X\newpic_8b_general.asm
         detect_red_m_isr   0x000edc    program     static C:\Users\tinom\OneDrive\Desktop\EMK310\Practical 1 2023\P1 Code.X\newpic_8b_general.asm
             detect_red_r   0x0007be    program     static C:\Users\tinom\OneDrive\Desktop\EMK310\Practical 1 2023\P1 Code.X\newpic_8b_general.asm
         detect_red_r_isr   0x000f38    program     static C:\Users\tinom\OneDrive\Desktop\EMK310\Practical 1 2023\P1 Code.X\newpic_8b_general.asm
           detect_white_l   0x00071a    program     static C:\Users\tinom\OneDrive\Desktop\EMK310\Practical 1 2023\P1 Code.X\newpic_8b_general.asm
       detect_white_l_isr   0x000e94    program     static C:\Users\tinom\OneDrive\Desktop\EMK310\Practical 1 2023\P1 Code.X\newpic_8b_general.asm
           detect_white_m   0x000776    program     static C:\Users\tinom\OneDrive\Desktop\EMK310\Practical 1 2023\P1 Code.X\newpic_8b_general.asm
       detect_white_m_isr   0x000ef0    program     static C:\Users\tinom\OneDrive\Desktop\EMK310\Practical 1 2023\P1 Code.X\newpic_8b_general.asm
           detect_white_r   0x0007d2    program     static C:\Users\tinom\OneDrive\Desktop\EMK310\Practical 1 2023\P1 Code.X\newpic_8b_general.asm
       detect_white_r_isr   0x000f4c    program     static C:\Users\tinom\OneDrive\Desktop\EMK310\Practical 1 2023\P1 Code.X\newpic_8b_general.asm
    end_register_dump_isr   0x000f54    program     static C:\Users\tinom\OneDrive\Desktop\EMK310\Practical 1 2023\P1 Code.X\newpic_8b_general.asm
 err_t_left_str_str_black   0x000bc4    program     static C:\Users\tinom\OneDrive\Desktop\EMK310\Practical 1 2023\P1 Code.X\newpic_8b_general.asm
  err_t_left_str_str_blue   0x000c68    program     static C:\Users\tinom\OneDrive\Desktop\EMK310\Practical 1 2023\P1 Code.X\newpic_8b_general.asm
 err_t_left_str_str_green   0x000d0c    program     static C:\Users\tinom\OneDrive\Desktop\EMK310\Practical 1 2023\P1 Code.X\newpic_8b_general.asm
   err_t_left_str_str_red   0x000db0    program     static C:\Users\tinom\OneDrive\Desktop\EMK310\Practical 1 2023\P1 Code.X\newpic_8b_general.asm
              error_black   0x000c00    program     static C:\Users\tinom\OneDrive\Desktop\EMK310\Practical 1 2023\P1 Code.X\newpic_8b_general.asm
               error_blue   0x000ca4    program     static C:\Users\tinom\OneDrive\Desktop\EMK310\Practical 1 2023\P1 Code.X\newpic_8b_general.asm
              error_green   0x000d48    program     static C:\Users\tinom\OneDrive\Desktop\EMK310\Practical 1 2023\P1 Code.X\newpic_8b_general.asm
                error_red   0x000dec    program     static C:\Users\tinom\OneDrive\Desktop\EMK310\Practical 1 2023\P1 Code.X\newpic_8b_general.asm
    error_turn_left_black   0x000bd8    program     static C:\Users\tinom\OneDrive\Desktop\EMK310\Practical 1 2023\P1 Code.X\newpic_8b_general.asm
     error_turn_left_blue   0x000c7c    program     static C:\Users\tinom\OneDrive\Desktop\EMK310\Practical 1 2023\P1 Code.X\newpic_8b_general.asm
    error_turn_left_green   0x000d20    program     static C:\Users\tinom\OneDrive\Desktop\EMK310\Practical 1 2023\P1 Code.X\newpic_8b_general.asm
      error_turn_left_red   0x000dc4    program     static C:\Users\tinom\OneDrive\Desktop\EMK310\Practical 1 2023\P1 Code.X\newpic_8b_general.asm
                  go_on_1   0x000f5c    program     static C:\Users\tinom\OneDrive\Desktop\EMK310\Practical 1 2023\P1 Code.X\newpic_8b_general.asm
              go_on_1_333   0x000f72    program     static C:\Users\tinom\OneDrive\Desktop\EMK310\Practical 1 2023\P1 Code.X\newpic_8b_general.asm
                  go_on_2   0x000f60    program     static C:\Users\tinom\OneDrive\Desktop\EMK310\Practical 1 2023\P1 Code.X\newpic_8b_general.asm
              go_on_2_333   0x000f76    program     static C:\Users\tinom\OneDrive\Desktop\EMK310\Practical 1 2023\P1 Code.X\newpic_8b_general.asm
          initialize_RGBs   0x000fe0    program     static C:\Users\tinom\OneDrive\Desktop\EMK310\Practical 1 2023\P1 Code.X\newpic_8b_general.asm
                     mode   0x0000d8    program     static C:\Users\tinom\OneDrive\Desktop\EMK310\Practical 1 2023\P1 Code.X\newpic_8b_general.asm
                nav_black   0x000ba2    program     static C:\Users\tinom\OneDrive\Desktop\EMK310\Practical 1 2023\P1 Code.X\newpic_8b_general.asm
     nav_black_inner_loop   0x000bac    program     static C:\Users\tinom\OneDrive\Desktop\EMK310\Practical 1 2023\P1 Code.X\newpic_8b_general.asm
          nav_black_start   0x000bba    program     static C:\Users\tinom\OneDrive\Desktop\EMK310\Practical 1 2023\P1 Code.X\newpic_8b_general.asm
                 nav_blue   0x000c46    program     static C:\Users\tinom\OneDrive\Desktop\EMK310\Practical 1 2023\P1 Code.X\newpic_8b_general.asm
      nav_blue_inner_loop   0x000c50    program     static C:\Users\tinom\OneDrive\Desktop\EMK310\Practical 1 2023\P1 Code.X\newpic_8b_general.asm
           nav_blue_start   0x000c5e    program     static C:\Users\tinom\OneDrive\Desktop\EMK310\Practical 1 2023\P1 Code.X\newpic_8b_general.asm
                nav_green   0x000cea    program     static C:\Users\tinom\OneDrive\Desktop\EMK310\Practical 1 2023\P1 Code.X\newpic_8b_general.asm
     nav_green_inner_loop   0x000cf4    program     static C:\Users\tinom\OneDrive\Desktop\EMK310\Practical 1 2023\P1 Code.X\newpic_8b_general.asm
          nav_green_start   0x000d02    program     static C:\Users\tinom\OneDrive\Desktop\EMK310\Practical 1 2023\P1 Code.X\newpic_8b_general.asm
                 nav_mode   0x0007e4    program     static C:\Users\tinom\OneDrive\Desktop\EMK310\Practical 1 2023\P1 Code.X\newpic_8b_general.asm
                  nav_red   0x000d8e    program     static C:\Users\tinom\OneDrive\Desktop\EMK310\Practical 1 2023\P1 Code.X\newpic_8b_general.asm
       nav_red_inner_loop   0x000d98    program     static C:\Users\tinom\OneDrive\Desktop\EMK310\Practical 1 2023\P1 Code.X\newpic_8b_general.asm
            nav_red_start   0x000da6    program     static C:\Users\tinom\OneDrive\Desktop\EMK310\Practical 1 2023\P1 Code.X\newpic_8b_general.asm
                   poll_l   0x000f8e    program     static C:\Users\tinom\OneDrive\Desktop\EMK310\Practical 1 2023\P1 Code.X\newpic_8b_general.asm
                   poll_m   0x000fa4    program     static C:\Users\tinom\OneDrive\Desktop\EMK310\Practical 1 2023\P1 Code.X\newpic_8b_general.asm
                   poll_r   0x000fba    program     static C:\Users\tinom\OneDrive\Desktop\EMK310\Practical 1 2023\P1 Code.X\newpic_8b_general.asm
        register_dump_isr   0x000e3c    program     static C:\Users\tinom\OneDrive\Desktop\EMK310\Practical 1 2023\P1 Code.X\newpic_8b_general.asm
               show_black   0x0007fa    program     static C:\Users\tinom\OneDrive\Desktop\EMK310\Practical 1 2023\P1 Code.X\newpic_8b_general.asm
        show_black_buffer   0x00087e    program     static C:\Users\tinom\OneDrive\Desktop\EMK310\Practical 1 2023\P1 Code.X\newpic_8b_general.asm
             show_black_l   0x00102e    program     static C:\Users\tinom\OneDrive\Desktop\EMK310\Practical 1 2023\P1 Code.X\newpic_8b_general.asm
             show_black_m   0x00106a    program     static C:\Users\tinom\OneDrive\Desktop\EMK310\Practical 1 2023\P1 Code.X\newpic_8b_general.asm
             show_black_r   0x0010a6    program     static C:\Users\tinom\OneDrive\Desktop\EMK310\Practical 1 2023\P1 Code.X\newpic_8b_general.asm
    show_black_transition   0x000814    program     static C:\Users\tinom\OneDrive\Desktop\EMK310\Practical 1 2023\P1 Code.X\newpic_8b_general.asm
                show_blue   0x000886    program     static C:\Users\tinom\OneDrive\Desktop\EMK310\Practical 1 2023\P1 Code.X\newpic_8b_general.asm
         show_blue_buffer   0x0008fc    program     static C:\Users\tinom\OneDrive\Desktop\EMK310\Practical 1 2023\P1 Code.X\newpic_8b_general.asm
              show_blue_l   0x00103a    program     static C:\Users\tinom\OneDrive\Desktop\EMK310\Practical 1 2023\P1 Code.X\newpic_8b_general.asm
              show_blue_m   0x001076    program     static C:\Users\tinom\OneDrive\Desktop\EMK310\Practical 1 2023\P1 Code.X\newpic_8b_general.asm
              show_blue_r   0x0010b2    program     static C:\Users\tinom\OneDrive\Desktop\EMK310\Practical 1 2023\P1 Code.X\newpic_8b_general.asm
     show_blue_transition   0x00089a    program     static C:\Users\tinom\OneDrive\Desktop\EMK310\Practical 1 2023\P1 Code.X\newpic_8b_general.asm
                   show_c   0x0000ee    program     static C:\Users\tinom\OneDrive\Desktop\EMK310\Practical 1 2023\P1 Code.X\newpic_8b_general.asm
            show_c_buffer   0x000172    program     static C:\Users\tinom\OneDrive\Desktop\EMK310\Practical 1 2023\P1 Code.X\newpic_8b_general.asm
        show_c_transition   0x000108    program     static C:\Users\tinom\OneDrive\Desktop\EMK310\Practical 1 2023\P1 Code.X\newpic_8b_general.asm
                   show_d   0x00017e    program     static C:\Users\tinom\OneDrive\Desktop\EMK310\Practical 1 2023\P1 Code.X\newpic_8b_general.asm
            show_d_buffer   0x0001fc    program     static C:\Users\tinom\OneDrive\Desktop\EMK310\Practical 1 2023\P1 Code.X\newpic_8b_general.asm
        show_d_transition   0x000192    program     static C:\Users\tinom\OneDrive\Desktop\EMK310\Practical 1 2023\P1 Code.X\newpic_8b_general.asm
               show_green   0x000904    program     static C:\Users\tinom\OneDrive\Desktop\EMK310\Practical 1 2023\P1 Code.X\newpic_8b_general.asm
        show_green_buffer   0x00097a    program     static C:\Users\tinom\OneDrive\Desktop\EMK310\Practical 1 2023\P1 Code.X\newpic_8b_general.asm
             show_green_l   0x001046    program     static C:\Users\tinom\OneDrive\Desktop\EMK310\Practical 1 2023\P1 Code.X\newpic_8b_general.asm
             show_green_m   0x001082    program     static C:\Users\tinom\OneDrive\Desktop\EMK310\Practical 1 2023\P1 Code.X\newpic_8b_general.asm
             show_green_r   0x0010be    program     static C:\Users\tinom\OneDrive\Desktop\EMK310\Practical 1 2023\P1 Code.X\newpic_8b_general.asm
    show_green_transition   0x000918    program     static C:\Users\tinom\OneDrive\Desktop\EMK310\Practical 1 2023\P1 Code.X\newpic_8b_general.asm
                   show_n   0x000204    program     static C:\Users\tinom\OneDrive\Desktop\EMK310\Practical 1 2023\P1 Code.X\newpic_8b_general.asm
            show_n_buffer   0x000282    program     static C:\Users\tinom\OneDrive\Desktop\EMK310\Practical 1 2023\P1 Code.X\newpic_8b_general.asm
        show_n_transition   0x000218    program     static C:\Users\tinom\OneDrive\Desktop\EMK310\Practical 1 2023\P1 Code.X\newpic_8b_general.asm
                 show_red   0x000982    program     static C:\Users\tinom\OneDrive\Desktop\EMK310\Practical 1 2023\P1 Code.X\newpic_8b_general.asm
          show_red_buffer   0x0009f8    program     static C:\Users\tinom\OneDrive\Desktop\EMK310\Practical 1 2023\P1 Code.X\newpic_8b_general.asm
               show_red_l   0x001052    program     static C:\Users\tinom\OneDrive\Desktop\EMK310\Practical 1 2023\P1 Code.X\newpic_8b_general.asm
               show_red_m   0x00108e    program     static C:\Users\tinom\OneDrive\Desktop\EMK310\Practical 1 2023\P1 Code.X\newpic_8b_general.asm
               show_red_r   0x0010ca    program     static C:\Users\tinom\OneDrive\Desktop\EMK310\Practical 1 2023\P1 Code.X\newpic_8b_general.asm
      show_red_transition   0x000996    program     static C:\Users\tinom\OneDrive\Desktop\EMK310\Practical 1 2023\P1 Code.X\newpic_8b_general.asm
             show_white_l   0x00105e    program     static C:\Users\tinom\OneDrive\Desktop\EMK310\Practical 1 2023\P1 Code.X\newpic_8b_general.asm
             show_white_m   0x00109a    program     static C:\Users\tinom\OneDrive\Desktop\EMK310\Practical 1 2023\P1 Code.X\newpic_8b_general.asm
             show_white_r   0x0010d6    program     static C:\Users\tinom\OneDrive\Desktop\EMK310\Practical 1 2023\P1 Code.X\newpic_8b_general.asm
                  startup   0x0000b4    program     static C:\Users\tinom\OneDrive\Desktop\EMK310\Practical 1 2023\P1 Code.X\newpic_8b_general.asm
       startup_transition   0x0000aa    program     static C:\Users\tinom\OneDrive\Desktop\EMK310\Practical 1 2023\P1 Code.X\newpic_8b_general.asm
         state_change_ISR   0x000e32    program     static C:\Users\tinom\OneDrive\Desktop\EMK310\Practical 1 2023\P1 Code.X\newpic_8b_general.asm
               stop_black   0x000c38    program     static C:\Users\tinom\OneDrive\Desktop\EMK310\Practical 1 2023\P1 Code.X\newpic_8b_general.asm
                stop_blue   0x000cdc    program     static C:\Users\tinom\OneDrive\Desktop\EMK310\Practical 1 2023\P1 Code.X\newpic_8b_general.asm
               stop_green   0x000d80    program     static C:\Users\tinom\OneDrive\Desktop\EMK310\Practical 1 2023\P1 Code.X\newpic_8b_general.asm
                 stop_red   0x000e24    program     static C:\Users\tinom\OneDrive\Desktop\EMK310\Practical 1 2023\P1 Code.X\newpic_8b_general.asm
           straight_black   0x000c1c    program     static C:\Users\tinom\OneDrive\Desktop\EMK310\Practical 1 2023\P1 Code.X\newpic_8b_general.asm
            straight_blue   0x000cc0    program     static C:\Users\tinom\OneDrive\Desktop\EMK310\Practical 1 2023\P1 Code.X\newpic_8b_general.asm
           straight_green   0x000d64    program     static C:\Users\tinom\OneDrive\Desktop\EMK310\Practical 1 2023\P1 Code.X\newpic_8b_general.asm
             straight_red   0x000e08    program     static C:\Users\tinom\OneDrive\Desktop\EMK310\Practical 1 2023\P1 Code.X\newpic_8b_general.asm
      straight_stop_black   0x000bf6    program     static C:\Users\tinom\OneDrive\Desktop\EMK310\Practical 1 2023\P1 Code.X\newpic_8b_general.asm
       straight_stop_blue   0x000c9a    program     static C:\Users\tinom\OneDrive\Desktop\EMK310\Practical 1 2023\P1 Code.X\newpic_8b_general.asm
      straight_stop_green   0x000d3e    program     static C:\Users\tinom\OneDrive\Desktop\EMK310\Practical 1 2023\P1 Code.X\newpic_8b_general.asm
        straight_stop_red   0x000de2    program     static C:\Users\tinom\OneDrive\Desktop\EMK310\Practical 1 2023\P1 Code.X\newpic_8b_general.asm
  straight_straight_black   0x000be2    program     static C:\Users\tinom\OneDrive\Desktop\EMK310\Practical 1 2023\P1 Code.X\newpic_8b_general.asm
   straight_straight_blue   0x000c86    program     static C:\Users\tinom\OneDrive\Desktop\EMK310\Practical 1 2023\P1 Code.X\newpic_8b_general.asm
  straight_straight_green   0x000d2a    program     static C:\Users\tinom\OneDrive\Desktop\EMK310\Practical 1 2023\P1 Code.X\newpic_8b_general.asm
    straight_straight_red   0x000dce    program     static C:\Users\tinom\OneDrive\Desktop\EMK310\Practical 1 2023\P1 Code.X\newpic_8b_general.asm
t_right_err_str_stop_black   0x000bce    program     static C:\Users\tinom\OneDrive\Desktop\EMK310\Practical 1 2023\P1 Code.X\newpic_8b_general.asm
t_right_err_str_stop_blue   0x000c72    program     static C:\Users\tinom\OneDrive\Desktop\EMK310\Practical 1 2023\P1 Code.X\newpic_8b_general.asm
t_right_err_str_stop_green   0x000d16    program     static C:\Users\tinom\OneDrive\Desktop\EMK310\Practical 1 2023\P1 Code.X\newpic_8b_general.asm
 t_right_err_str_stop_red   0x000dba    program     static C:\Users\tinom\OneDrive\Desktop\EMK310\Practical 1 2023\P1 Code.X\newpic_8b_general.asm
          turn_left_black   0x000c0e    program     static C:\Users\tinom\OneDrive\Desktop\EMK310\Practical 1 2023\P1 Code.X\newpic_8b_general.asm
           turn_left_blue   0x000cb2    program     static C:\Users\tinom\OneDrive\Desktop\EMK310\Practical 1 2023\P1 Code.X\newpic_8b_general.asm
          turn_left_green   0x000d56    program     static C:\Users\tinom\OneDrive\Desktop\EMK310\Practical 1 2023\P1 Code.X\newpic_8b_general.asm
            turn_left_red   0x000dfa    program     static C:\Users\tinom\OneDrive\Desktop\EMK310\Practical 1 2023\P1 Code.X\newpic_8b_general.asm
         turn_right_black   0x000c2a    program     static C:\Users\tinom\OneDrive\Desktop\EMK310\Practical 1 2023\P1 Code.X\newpic_8b_general.asm
          turn_right_blue   0x000cce    program     static C:\Users\tinom\OneDrive\Desktop\EMK310\Practical 1 2023\P1 Code.X\newpic_8b_general.asm
   turn_right_error_black   0x000bec    program     static C:\Users\tinom\OneDrive\Desktop\EMK310\Practical 1 2023\P1 Code.X\newpic_8b_general.asm
    turn_right_error_blue   0x000c90    program     static C:\Users\tinom\OneDrive\Desktop\EMK310\Practical 1 2023\P1 Code.X\newpic_8b_general.asm
   turn_right_error_green   0x000d34    program     static C:\Users\tinom\OneDrive\Desktop\EMK310\Practical 1 2023\P1 Code.X\newpic_8b_general.asm
     turn_right_error_red   0x000dd8    program     static C:\Users\tinom\OneDrive\Desktop\EMK310\Practical 1 2023\P1 Code.X\newpic_8b_general.asm
         turn_right_green   0x000d72    program     static C:\Users\tinom\OneDrive\Desktop\EMK310\Practical 1 2023\P1 Code.X\newpic_8b_general.asm
           turn_right_red   0x000e16    program     static C:\Users\tinom\OneDrive\Desktop\EMK310\Practical 1 2023\P1 Code.X\newpic_8b_general.asm



                              Symbols - Sorted by Address
                     Name    Address   Location    Storage File                     
                ---------  ---------  ---------  --------- ---------                
                    Setup   0x000012    program     static C:\Users\tinom\OneDrive\Desktop\EMK310\Practical 1 2023\P1 Code.X\newpic_8b_general.asm
       startup_transition   0x0000aa    program     static C:\Users\tinom\OneDrive\Desktop\EMK310\Practical 1 2023\P1 Code.X\newpic_8b_general.asm
                  startup   0x0000b4    program     static C:\Users\tinom\OneDrive\Desktop\EMK310\Practical 1 2023\P1 Code.X\newpic_8b_general.asm
                     mode   0x0000d8    program     static C:\Users\tinom\OneDrive\Desktop\EMK310\Practical 1 2023\P1 Code.X\newpic_8b_general.asm
                   show_c   0x0000ee    program     static C:\Users\tinom\OneDrive\Desktop\EMK310\Practical 1 2023\P1 Code.X\newpic_8b_general.asm
        show_c_transition   0x000108    program     static C:\Users\tinom\OneDrive\Desktop\EMK310\Practical 1 2023\P1 Code.X\newpic_8b_general.asm
            show_c_buffer   0x000172    program     static C:\Users\tinom\OneDrive\Desktop\EMK310\Practical 1 2023\P1 Code.X\newpic_8b_general.asm
                   show_d   0x00017e    program     static C:\Users\tinom\OneDrive\Desktop\EMK310\Practical 1 2023\P1 Code.X\newpic_8b_general.asm
        show_d_transition   0x000192    program     static C:\Users\tinom\OneDrive\Desktop\EMK310\Practical 1 2023\P1 Code.X\newpic_8b_general.asm
            show_d_buffer   0x0001fc    program     static C:\Users\tinom\OneDrive\Desktop\EMK310\Practical 1 2023\P1 Code.X\newpic_8b_general.asm
                   show_n   0x000204    program     static C:\Users\tinom\OneDrive\Desktop\EMK310\Practical 1 2023\P1 Code.X\newpic_8b_general.asm
        show_n_transition   0x000218    program     static C:\Users\tinom\OneDrive\Desktop\EMK310\Practical 1 2023\P1 Code.X\newpic_8b_general.asm
            show_n_buffer   0x000282    program     static C:\Users\tinom\OneDrive\Desktop\EMK310\Practical 1 2023\P1 Code.X\newpic_8b_general.asm
calibration_buffer_black_l   0x00028a    program     static C:\Users\tinom\OneDrive\Desktop\EMK310\Practical 1 2023\P1 Code.X\newpic_8b_general.asm
              cal_black_l   0x000298    program     static C:\Users\tinom\OneDrive\Desktop\EMK310\Practical 1 2023\P1 Code.X\newpic_8b_general.asm
calibration_buffer_blue_l   0x0002e4    program     static C:\Users\tinom\OneDrive\Desktop\EMK310\Practical 1 2023\P1 Code.X\newpic_8b_general.asm
               cal_blue_l   0x0002f2    program     static C:\Users\tinom\OneDrive\Desktop\EMK310\Practical 1 2023\P1 Code.X\newpic_8b_general.asm
calibration_buffer_green_l   0x00033e    program     static C:\Users\tinom\OneDrive\Desktop\EMK310\Practical 1 2023\P1 Code.X\newpic_8b_general.asm
              cal_green_l   0x00034c    program     static C:\Users\tinom\OneDrive\Desktop\EMK310\Practical 1 2023\P1 Code.X\newpic_8b_general.asm
 calibration_buffer_red_l   0x000398    program     static C:\Users\tinom\OneDrive\Desktop\EMK310\Practical 1 2023\P1 Code.X\newpic_8b_general.asm
                cal_red_l   0x0003a6    program     static C:\Users\tinom\OneDrive\Desktop\EMK310\Practical 1 2023\P1 Code.X\newpic_8b_general.asm
calibration_buffer_black_m   0x0003f2    program     static C:\Users\tinom\OneDrive\Desktop\EMK310\Practical 1 2023\P1 Code.X\newpic_8b_general.asm
              cal_black_m   0x000400    program     static C:\Users\tinom\OneDrive\Desktop\EMK310\Practical 1 2023\P1 Code.X\newpic_8b_general.asm
calibration_buffer_blue_m   0x00044c    program     static C:\Users\tinom\OneDrive\Desktop\EMK310\Practical 1 2023\P1 Code.X\newpic_8b_general.asm
               cal_blue_m   0x00045a    program     static C:\Users\tinom\OneDrive\Desktop\EMK310\Practical 1 2023\P1 Code.X\newpic_8b_general.asm
calibration_buffer_green_m   0x0004a6    program     static C:\Users\tinom\OneDrive\Desktop\EMK310\Practical 1 2023\P1 Code.X\newpic_8b_general.asm
              cal_green_m   0x0004b4    program     static C:\Users\tinom\OneDrive\Desktop\EMK310\Practical 1 2023\P1 Code.X\newpic_8b_general.asm
 calibration_buffer_red_m   0x000500    program     static C:\Users\tinom\OneDrive\Desktop\EMK310\Practical 1 2023\P1 Code.X\newpic_8b_general.asm
                cal_red_m   0x00050e    program     static C:\Users\tinom\OneDrive\Desktop\EMK310\Practical 1 2023\P1 Code.X\newpic_8b_general.asm
calibration_buffer_black_r   0x00055a    program     static C:\Users\tinom\OneDrive\Desktop\EMK310\Practical 1 2023\P1 Code.X\newpic_8b_general.asm
              cal_black_r   0x000568    program     static C:\Users\tinom\OneDrive\Desktop\EMK310\Practical 1 2023\P1 Code.X\newpic_8b_general.asm
calibration_buffer_blue_r   0x0005b4    program     static C:\Users\tinom\OneDrive\Desktop\EMK310\Practical 1 2023\P1 Code.X\newpic_8b_general.asm
               cal_blue_r   0x0005c2    program     static C:\Users\tinom\OneDrive\Desktop\EMK310\Practical 1 2023\P1 Code.X\newpic_8b_general.asm
calibration_buffer_green_r   0x00060e    program     static C:\Users\tinom\OneDrive\Desktop\EMK310\Practical 1 2023\P1 Code.X\newpic_8b_general.asm
              cal_green_r   0x00061c    program     static C:\Users\tinom\OneDrive\Desktop\EMK310\Practical 1 2023\P1 Code.X\newpic_8b_general.asm
 calibration_buffer_red_r   0x000668    program     static C:\Users\tinom\OneDrive\Desktop\EMK310\Practical 1 2023\P1 Code.X\newpic_8b_general.asm
                cal_red_r   0x000676    program     static C:\Users\tinom\OneDrive\Desktop\EMK310\Practical 1 2023\P1 Code.X\newpic_8b_general.asm
           detect_black_l   0x0006c2    program     static C:\Users\tinom\OneDrive\Desktop\EMK310\Practical 1 2023\P1 Code.X\newpic_8b_general.asm
            detect_blue_l   0x0006de    program     static C:\Users\tinom\OneDrive\Desktop\EMK310\Practical 1 2023\P1 Code.X\newpic_8b_general.asm
           detect_green_l   0x0006f2    program     static C:\Users\tinom\OneDrive\Desktop\EMK310\Practical 1 2023\P1 Code.X\newpic_8b_general.asm
             detect_red_l   0x000706    program     static C:\Users\tinom\OneDrive\Desktop\EMK310\Practical 1 2023\P1 Code.X\newpic_8b_general.asm
           detect_white_l   0x00071a    program     static C:\Users\tinom\OneDrive\Desktop\EMK310\Practical 1 2023\P1 Code.X\newpic_8b_general.asm
           detect_black_m   0x000722    program     static C:\Users\tinom\OneDrive\Desktop\EMK310\Practical 1 2023\P1 Code.X\newpic_8b_general.asm
            detect_blue_m   0x00073a    program     static C:\Users\tinom\OneDrive\Desktop\EMK310\Practical 1 2023\P1 Code.X\newpic_8b_general.asm
           detect_green_m   0x00074e    program     static C:\Users\tinom\OneDrive\Desktop\EMK310\Practical 1 2023\P1 Code.X\newpic_8b_general.asm
             detect_red_m   0x000762    program     static C:\Users\tinom\OneDrive\Desktop\EMK310\Practical 1 2023\P1 Code.X\newpic_8b_general.asm
           detect_white_m   0x000776    program     static C:\Users\tinom\OneDrive\Desktop\EMK310\Practical 1 2023\P1 Code.X\newpic_8b_general.asm
           detect_black_r   0x00077e    program     static C:\Users\tinom\OneDrive\Desktop\EMK310\Practical 1 2023\P1 Code.X\newpic_8b_general.asm
            detect_blue_r   0x000796    program     static C:\Users\tinom\OneDrive\Desktop\EMK310\Practical 1 2023\P1 Code.X\newpic_8b_general.asm
           detect_green_r   0x0007aa    program     static C:\Users\tinom\OneDrive\Desktop\EMK310\Practical 1 2023\P1 Code.X\newpic_8b_general.asm
             detect_red_r   0x0007be    program     static C:\Users\tinom\OneDrive\Desktop\EMK310\Practical 1 2023\P1 Code.X\newpic_8b_general.asm
           detect_white_r   0x0007d2    program     static C:\Users\tinom\OneDrive\Desktop\EMK310\Practical 1 2023\P1 Code.X\newpic_8b_general.asm
   colour_detector_buffer   0x0007da    program     static C:\Users\tinom\OneDrive\Desktop\EMK310\Practical 1 2023\P1 Code.X\newpic_8b_general.asm
                 nav_mode   0x0007e4    program     static C:\Users\tinom\OneDrive\Desktop\EMK310\Practical 1 2023\P1 Code.X\newpic_8b_general.asm
               show_black   0x0007fa    program     static C:\Users\tinom\OneDrive\Desktop\EMK310\Practical 1 2023\P1 Code.X\newpic_8b_general.asm
    show_black_transition   0x000814    program     static C:\Users\tinom\OneDrive\Desktop\EMK310\Practical 1 2023\P1 Code.X\newpic_8b_general.asm
        show_black_buffer   0x00087e    program     static C:\Users\tinom\OneDrive\Desktop\EMK310\Practical 1 2023\P1 Code.X\newpic_8b_general.asm
                show_blue   0x000886    program     static C:\Users\tinom\OneDrive\Desktop\EMK310\Practical 1 2023\P1 Code.X\newpic_8b_general.asm
     show_blue_transition   0x00089a    program     static C:\Users\tinom\OneDrive\Desktop\EMK310\Practical 1 2023\P1 Code.X\newpic_8b_general.asm
         show_blue_buffer   0x0008fc    program     static C:\Users\tinom\OneDrive\Desktop\EMK310\Practical 1 2023\P1 Code.X\newpic_8b_general.asm
               show_green   0x000904    program     static C:\Users\tinom\OneDrive\Desktop\EMK310\Practical 1 2023\P1 Code.X\newpic_8b_general.asm
    show_green_transition   0x000918    program     static C:\Users\tinom\OneDrive\Desktop\EMK310\Practical 1 2023\P1 Code.X\newpic_8b_general.asm
        show_green_buffer   0x00097a    program     static C:\Users\tinom\OneDrive\Desktop\EMK310\Practical 1 2023\P1 Code.X\newpic_8b_general.asm
                 show_red   0x000982    program     static C:\Users\tinom\OneDrive\Desktop\EMK310\Practical 1 2023\P1 Code.X\newpic_8b_general.asm
      show_red_transition   0x000996    program     static C:\Users\tinom\OneDrive\Desktop\EMK310\Practical 1 2023\P1 Code.X\newpic_8b_general.asm
          show_red_buffer   0x0009f8    program     static C:\Users\tinom\OneDrive\Desktop\EMK310\Practical 1 2023\P1 Code.X\newpic_8b_general.asm
            check_black_l   0x000a00    program     static C:\Users\tinom\OneDrive\Desktop\EMK310\Practical 1 2023\P1 Code.X\newpic_8b_general.asm
            clear_black_l   0x000a1e    program     static C:\Users\tinom\OneDrive\Desktop\EMK310\Practical 1 2023\P1 Code.X\newpic_8b_general.asm
            check_black_m   0x000a20    program     static C:\Users\tinom\OneDrive\Desktop\EMK310\Practical 1 2023\P1 Code.X\newpic_8b_general.asm
            clear_black_m   0x000a34    program     static C:\Users\tinom\OneDrive\Desktop\EMK310\Practical 1 2023\P1 Code.X\newpic_8b_general.asm
            check_black_r   0x000a36    program     static C:\Users\tinom\OneDrive\Desktop\EMK310\Practical 1 2023\P1 Code.X\newpic_8b_general.asm
            clear_black_r   0x000a4a    program     static C:\Users\tinom\OneDrive\Desktop\EMK310\Practical 1 2023\P1 Code.X\newpic_8b_general.asm
             check_blue_l   0x000a50    program     static C:\Users\tinom\OneDrive\Desktop\EMK310\Practical 1 2023\P1 Code.X\newpic_8b_general.asm
             clear_blue_l   0x000a78    program     static C:\Users\tinom\OneDrive\Desktop\EMK310\Practical 1 2023\P1 Code.X\newpic_8b_general.asm
             check_blue_m   0x000a7a    program     static C:\Users\tinom\OneDrive\Desktop\EMK310\Practical 1 2023\P1 Code.X\newpic_8b_general.asm
             clear_blue_m   0x000a98    program     static C:\Users\tinom\OneDrive\Desktop\EMK310\Practical 1 2023\P1 Code.X\newpic_8b_general.asm
             check_blue_r   0x000a9a    program     static C:\Users\tinom\OneDrive\Desktop\EMK310\Practical 1 2023\P1 Code.X\newpic_8b_general.asm
             clear_blue_r   0x000ab8    program     static C:\Users\tinom\OneDrive\Desktop\EMK310\Practical 1 2023\P1 Code.X\newpic_8b_general.asm
            check_green_l   0x000abe    program     static C:\Users\tinom\OneDrive\Desktop\EMK310\Practical 1 2023\P1 Code.X\newpic_8b_general.asm
            clear_green_l   0x000ae6    program     static C:\Users\tinom\OneDrive\Desktop\EMK310\Practical 1 2023\P1 Code.X\newpic_8b_general.asm
            check_green_m   0x000aec    program     static C:\Users\tinom\OneDrive\Desktop\EMK310\Practical 1 2023\P1 Code.X\newpic_8b_general.asm
            clear_green_m   0x000b0a    program     static C:\Users\tinom\OneDrive\Desktop\EMK310\Practical 1 2023\P1 Code.X\newpic_8b_general.asm
            check_green_r   0x000b10    program     static C:\Users\tinom\OneDrive\Desktop\EMK310\Practical 1 2023\P1 Code.X\newpic_8b_general.asm
            clear_green_r   0x000b2e    program     static C:\Users\tinom\OneDrive\Desktop\EMK310\Practical 1 2023\P1 Code.X\newpic_8b_general.asm
              check_red_l   0x000b34    program     static C:\Users\tinom\OneDrive\Desktop\EMK310\Practical 1 2023\P1 Code.X\newpic_8b_general.asm
              clear_red_l   0x000b5c    program     static C:\Users\tinom\OneDrive\Desktop\EMK310\Practical 1 2023\P1 Code.X\newpic_8b_general.asm
              check_red_m   0x000b5e    program     static C:\Users\tinom\OneDrive\Desktop\EMK310\Practical 1 2023\P1 Code.X\newpic_8b_general.asm
              clear_red_m   0x000b7c    program     static C:\Users\tinom\OneDrive\Desktop\EMK310\Practical 1 2023\P1 Code.X\newpic_8b_general.asm
              check_red_r   0x000b7e    program     static C:\Users\tinom\OneDrive\Desktop\EMK310\Practical 1 2023\P1 Code.X\newpic_8b_general.asm
              clear_red_r   0x000b9c    program     static C:\Users\tinom\OneDrive\Desktop\EMK310\Practical 1 2023\P1 Code.X\newpic_8b_general.asm
                nav_black   0x000ba2    program     static C:\Users\tinom\OneDrive\Desktop\EMK310\Practical 1 2023\P1 Code.X\newpic_8b_general.asm
     nav_black_inner_loop   0x000bac    program     static C:\Users\tinom\OneDrive\Desktop\EMK310\Practical 1 2023\P1 Code.X\newpic_8b_general.asm
          nav_black_start   0x000bba    program     static C:\Users\tinom\OneDrive\Desktop\EMK310\Practical 1 2023\P1 Code.X\newpic_8b_general.asm
 err_t_left_str_str_black   0x000bc4    program     static C:\Users\tinom\OneDrive\Desktop\EMK310\Practical 1 2023\P1 Code.X\newpic_8b_general.asm
t_right_err_str_stop_black   0x000bce    program     static C:\Users\tinom\OneDrive\Desktop\EMK310\Practical 1 2023\P1 Code.X\newpic_8b_general.asm
    error_turn_left_black   0x000bd8    program     static C:\Users\tinom\OneDrive\Desktop\EMK310\Practical 1 2023\P1 Code.X\newpic_8b_general.asm
  straight_straight_black   0x000be2    program     static C:\Users\tinom\OneDrive\Desktop\EMK310\Practical 1 2023\P1 Code.X\newpic_8b_general.asm
   turn_right_error_black   0x000bec    program     static C:\Users\tinom\OneDrive\Desktop\EMK310\Practical 1 2023\P1 Code.X\newpic_8b_general.asm
      straight_stop_black   0x000bf6    program     static C:\Users\tinom\OneDrive\Desktop\EMK310\Practical 1 2023\P1 Code.X\newpic_8b_general.asm
              error_black   0x000c00    program     static C:\Users\tinom\OneDrive\Desktop\EMK310\Practical 1 2023\P1 Code.X\newpic_8b_general.asm
          turn_left_black   0x000c0e    program     static C:\Users\tinom\OneDrive\Desktop\EMK310\Practical 1 2023\P1 Code.X\newpic_8b_general.asm
           straight_black   0x000c1c    program     static C:\Users\tinom\OneDrive\Desktop\EMK310\Practical 1 2023\P1 Code.X\newpic_8b_general.asm
         turn_right_black   0x000c2a    program     static C:\Users\tinom\OneDrive\Desktop\EMK310\Practical 1 2023\P1 Code.X\newpic_8b_general.asm
               stop_black   0x000c38    program     static C:\Users\tinom\OneDrive\Desktop\EMK310\Practical 1 2023\P1 Code.X\newpic_8b_general.asm
                 nav_blue   0x000c46    program     static C:\Users\tinom\OneDrive\Desktop\EMK310\Practical 1 2023\P1 Code.X\newpic_8b_general.asm
      nav_blue_inner_loop   0x000c50    program     static C:\Users\tinom\OneDrive\Desktop\EMK310\Practical 1 2023\P1 Code.X\newpic_8b_general.asm
           nav_blue_start   0x000c5e    program     static C:\Users\tinom\OneDrive\Desktop\EMK310\Practical 1 2023\P1 Code.X\newpic_8b_general.asm
  err_t_left_str_str_blue   0x000c68    program     static C:\Users\tinom\OneDrive\Desktop\EMK310\Practical 1 2023\P1 Code.X\newpic_8b_general.asm
t_right_err_str_stop_blue   0x000c72    program     static C:\Users\tinom\OneDrive\Desktop\EMK310\Practical 1 2023\P1 Code.X\newpic_8b_general.asm
     error_turn_left_blue   0x000c7c    program     static C:\Users\tinom\OneDrive\Desktop\EMK310\Practical 1 2023\P1 Code.X\newpic_8b_general.asm
   straight_straight_blue   0x000c86    program     static C:\Users\tinom\OneDrive\Desktop\EMK310\Practical 1 2023\P1 Code.X\newpic_8b_general.asm
    turn_right_error_blue   0x000c90    program     static C:\Users\tinom\OneDrive\Desktop\EMK310\Practical 1 2023\P1 Code.X\newpic_8b_general.asm
       straight_stop_blue   0x000c9a    program     static C:\Users\tinom\OneDrive\Desktop\EMK310\Practical 1 2023\P1 Code.X\newpic_8b_general.asm
               error_blue   0x000ca4    program     static C:\Users\tinom\OneDrive\Desktop\EMK310\Practical 1 2023\P1 Code.X\newpic_8b_general.asm
           turn_left_blue   0x000cb2    program     static C:\Users\tinom\OneDrive\Desktop\EMK310\Practical 1 2023\P1 Code.X\newpic_8b_general.asm
            straight_blue   0x000cc0    program     static C:\Users\tinom\OneDrive\Desktop\EMK310\Practical 1 2023\P1 Code.X\newpic_8b_general.asm
          turn_right_blue   0x000cce    program     static C:\Users\tinom\OneDrive\Desktop\EMK310\Practical 1 2023\P1 Code.X\newpic_8b_general.asm
                stop_blue   0x000cdc    program     static C:\Users\tinom\OneDrive\Desktop\EMK310\Practical 1 2023\P1 Code.X\newpic_8b_general.asm
                nav_green   0x000cea    program     static C:\Users\tinom\OneDrive\Desktop\EMK310\Practical 1 2023\P1 Code.X\newpic_8b_general.asm
     nav_green_inner_loop   0x000cf4    program     static C:\Users\tinom\OneDrive\Desktop\EMK310\Practical 1 2023\P1 Code.X\newpic_8b_general.asm
          nav_green_start   0x000d02    program     static C:\Users\tinom\OneDrive\Desktop\EMK310\Practical 1 2023\P1 Code.X\newpic_8b_general.asm
 err_t_left_str_str_green   0x000d0c    program     static C:\Users\tinom\OneDrive\Desktop\EMK310\Practical 1 2023\P1 Code.X\newpic_8b_general.asm
t_right_err_str_stop_green   0x000d16    program     static C:\Users\tinom\OneDrive\Desktop\EMK310\Practical 1 2023\P1 Code.X\newpic_8b_general.asm
    error_turn_left_green   0x000d20    program     static C:\Users\tinom\OneDrive\Desktop\EMK310\Practical 1 2023\P1 Code.X\newpic_8b_general.asm
  straight_straight_green   0x000d2a    program     static C:\Users\tinom\OneDrive\Desktop\EMK310\Practical 1 2023\P1 Code.X\newpic_8b_general.asm
   turn_right_error_green   0x000d34    program     static C:\Users\tinom\OneDrive\Desktop\EMK310\Practical 1 2023\P1 Code.X\newpic_8b_general.asm
      straight_stop_green   0x000d3e    program     static C:\Users\tinom\OneDrive\Desktop\EMK310\Practical 1 2023\P1 Code.X\newpic_8b_general.asm
              error_green   0x000d48    program     static C:\Users\tinom\OneDrive\Desktop\EMK310\Practical 1 2023\P1 Code.X\newpic_8b_general.asm
          turn_left_green   0x000d56    program     static C:\Users\tinom\OneDrive\Desktop\EMK310\Practical 1 2023\P1 Code.X\newpic_8b_general.asm
           straight_green   0x000d64    program     static C:\Users\tinom\OneDrive\Desktop\EMK310\Practical 1 2023\P1 Code.X\newpic_8b_general.asm
         turn_right_green   0x000d72    program     static C:\Users\tinom\OneDrive\Desktop\EMK310\Practical 1 2023\P1 Code.X\newpic_8b_general.asm
               stop_green   0x000d80    program     static C:\Users\tinom\OneDrive\Desktop\EMK310\Practical 1 2023\P1 Code.X\newpic_8b_general.asm
                  nav_red   0x000d8e    program     static C:\Users\tinom\OneDrive\Desktop\EMK310\Practical 1 2023\P1 Code.X\newpic_8b_general.asm
       nav_red_inner_loop   0x000d98    program     static C:\Users\tinom\OneDrive\Desktop\EMK310\Practical 1 2023\P1 Code.X\newpic_8b_general.asm
            nav_red_start   0x000da6    program     static C:\Users\tinom\OneDrive\Desktop\EMK310\Practical 1 2023\P1 Code.X\newpic_8b_general.asm
   err_t_left_str_str_red   0x000db0    program     static C:\Users\tinom\OneDrive\Desktop\EMK310\Practical 1 2023\P1 Code.X\newpic_8b_general.asm
 t_right_err_str_stop_red   0x000dba    program     static C:\Users\tinom\OneDrive\Desktop\EMK310\Practical 1 2023\P1 Code.X\newpic_8b_general.asm
      error_turn_left_red   0x000dc4    program     static C:\Users\tinom\OneDrive\Desktop\EMK310\Practical 1 2023\P1 Code.X\newpic_8b_general.asm
    straight_straight_red   0x000dce    program     static C:\Users\tinom\OneDrive\Desktop\EMK310\Practical 1 2023\P1 Code.X\newpic_8b_general.asm
     turn_right_error_red   0x000dd8    program     static C:\Users\tinom\OneDrive\Desktop\EMK310\Practical 1 2023\P1 Code.X\newpic_8b_general.asm
        straight_stop_red   0x000de2    program     static C:\Users\tinom\OneDrive\Desktop\EMK310\Practical 1 2023\P1 Code.X\newpic_8b_general.asm
                error_red   0x000dec    program     static C:\Users\tinom\OneDrive\Desktop\EMK310\Practical 1 2023\P1 Code.X\newpic_8b_general.asm
            turn_left_red   0x000dfa    program     static C:\Users\tinom\OneDrive\Desktop\EMK310\Practical 1 2023\P1 Code.X\newpic_8b_general.asm
             straight_red   0x000e08    program     static C:\Users\tinom\OneDrive\Desktop\EMK310\Practical 1 2023\P1 Code.X\newpic_8b_general.asm
           turn_right_red   0x000e16    program     static C:\Users\tinom\OneDrive\Desktop\EMK310\Practical 1 2023\P1 Code.X\newpic_8b_general.asm
                 stop_red   0x000e24    program     static C:\Users\tinom\OneDrive\Desktop\EMK310\Practical 1 2023\P1 Code.X\newpic_8b_general.asm
         state_change_ISR   0x000e32    program     static C:\Users\tinom\OneDrive\Desktop\EMK310\Practical 1 2023\P1 Code.X\newpic_8b_general.asm
       detect_black_l_isr   0x000e3c    program     static C:\Users\tinom\OneDrive\Desktop\EMK310\Practical 1 2023\P1 Code.X\newpic_8b_general.asm
        register_dump_isr   0x000e3c    program     static C:\Users\tinom\OneDrive\Desktop\EMK310\Practical 1 2023\P1 Code.X\newpic_8b_general.asm
        detect_blue_l_isr   0x000e58    program     static C:\Users\tinom\OneDrive\Desktop\EMK310\Practical 1 2023\P1 Code.X\newpic_8b_general.asm
       detect_green_l_isr   0x000e6c    program     static C:\Users\tinom\OneDrive\Desktop\EMK310\Practical 1 2023\P1 Code.X\newpic_8b_general.asm
         detect_red_l_isr   0x000e80    program     static C:\Users\tinom\OneDrive\Desktop\EMK310\Practical 1 2023\P1 Code.X\newpic_8b_general.asm
       detect_white_l_isr   0x000e94    program     static C:\Users\tinom\OneDrive\Desktop\EMK310\Practical 1 2023\P1 Code.X\newpic_8b_general.asm
       detect_black_m_isr   0x000e9c    program     static C:\Users\tinom\OneDrive\Desktop\EMK310\Practical 1 2023\P1 Code.X\newpic_8b_general.asm
        detect_blue_m_isr   0x000eb4    program     static C:\Users\tinom\OneDrive\Desktop\EMK310\Practical 1 2023\P1 Code.X\newpic_8b_general.asm
       detect_green_m_isr   0x000ec8    program     static C:\Users\tinom\OneDrive\Desktop\EMK310\Practical 1 2023\P1 Code.X\newpic_8b_general.asm
         detect_red_m_isr   0x000edc    program     static C:\Users\tinom\OneDrive\Desktop\EMK310\Practical 1 2023\P1 Code.X\newpic_8b_general.asm
       detect_white_m_isr   0x000ef0    program     static C:\Users\tinom\OneDrive\Desktop\EMK310\Practical 1 2023\P1 Code.X\newpic_8b_general.asm
       detect_black_r_isr   0x000ef8    program     static C:\Users\tinom\OneDrive\Desktop\EMK310\Practical 1 2023\P1 Code.X\newpic_8b_general.asm
        detect_blue_r_isr   0x000f10    program     static C:\Users\tinom\OneDrive\Desktop\EMK310\Practical 1 2023\P1 Code.X\newpic_8b_general.asm
       detect_green_r_isr   0x000f24    program     static C:\Users\tinom\OneDrive\Desktop\EMK310\Practical 1 2023\P1 Code.X\newpic_8b_general.asm
         detect_red_r_isr   0x000f38    program     static C:\Users\tinom\OneDrive\Desktop\EMK310\Practical 1 2023\P1 Code.X\newpic_8b_general.asm
       detect_white_r_isr   0x000f4c    program     static C:\Users\tinom\OneDrive\Desktop\EMK310\Practical 1 2023\P1 Code.X\newpic_8b_general.asm
    end_register_dump_isr   0x000f54    program     static C:\Users\tinom\OneDrive\Desktop\EMK310\Practical 1 2023\P1 Code.X\newpic_8b_general.asm
             delay_loop_1   0x000f58    program     static C:\Users\tinom\OneDrive\Desktop\EMK310\Practical 1 2023\P1 Code.X\newpic_8b_general.asm
                  go_on_1   0x000f5c    program     static C:\Users\tinom\OneDrive\Desktop\EMK310\Practical 1 2023\P1 Code.X\newpic_8b_general.asm
                  go_on_2   0x000f60    program     static C:\Users\tinom\OneDrive\Desktop\EMK310\Practical 1 2023\P1 Code.X\newpic_8b_general.asm
           delay_loop_333   0x000f6e    program     static C:\Users\tinom\OneDrive\Desktop\EMK310\Practical 1 2023\P1 Code.X\newpic_8b_general.asm
              go_on_1_333   0x000f72    program     static C:\Users\tinom\OneDrive\Desktop\EMK310\Practical 1 2023\P1 Code.X\newpic_8b_general.asm
              go_on_2_333   0x000f76    program     static C:\Users\tinom\OneDrive\Desktop\EMK310\Practical 1 2023\P1 Code.X\newpic_8b_general.asm
                ADCpoll_l   0x000f84    program     static C:\Users\tinom\OneDrive\Desktop\EMK310\Practical 1 2023\P1 Code.X\newpic_8b_general.asm
                   poll_l   0x000f8e    program     static C:\Users\tinom\OneDrive\Desktop\EMK310\Practical 1 2023\P1 Code.X\newpic_8b_general.asm
                ADCpoll_m   0x000f9a    program     static C:\Users\tinom\OneDrive\Desktop\EMK310\Practical 1 2023\P1 Code.X\newpic_8b_general.asm
                   poll_m   0x000fa4    program     static C:\Users\tinom\OneDrive\Desktop\EMK310\Practical 1 2023\P1 Code.X\newpic_8b_general.asm
                ADCpoll_r   0x000fb0    program     static C:\Users\tinom\OneDrive\Desktop\EMK310\Practical 1 2023\P1 Code.X\newpic_8b_general.asm
                   poll_r   0x000fba    program     static C:\Users\tinom\OneDrive\Desktop\EMK310\Practical 1 2023\P1 Code.X\newpic_8b_general.asm
              SSD_display   0x000fc6    program     static C:\Users\tinom\OneDrive\Desktop\EMK310\Practical 1 2023\P1 Code.X\newpic_8b_general.asm
                SSD_clear   0x000fd2    program     static C:\Users\tinom\OneDrive\Desktop\EMK310\Practical 1 2023\P1 Code.X\newpic_8b_general.asm
          initialize_RGBs   0x000fe0    program     static C:\Users\tinom\OneDrive\Desktop\EMK310\Practical 1 2023\P1 Code.X\newpic_8b_general.asm
             show_black_l   0x00102e    program     static C:\Users\tinom\OneDrive\Desktop\EMK310\Practical 1 2023\P1 Code.X\newpic_8b_general.asm
              show_blue_l   0x00103a    program     static C:\Users\tinom\OneDrive\Desktop\EMK310\Practical 1 2023\P1 Code.X\newpic_8b_general.asm
             show_green_l   0x001046    program     static C:\Users\tinom\OneDrive\Desktop\EMK310\Practical 1 2023\P1 Code.X\newpic_8b_general.asm
               show_red_l   0x001052    program     static C:\Users\tinom\OneDrive\Desktop\EMK310\Practical 1 2023\P1 Code.X\newpic_8b_general.asm
             show_white_l   0x00105e    program     static C:\Users\tinom\OneDrive\Desktop\EMK310\Practical 1 2023\P1 Code.X\newpic_8b_general.asm
             show_black_m   0x00106a    program     static C:\Users\tinom\OneDrive\Desktop\EMK310\Practical 1 2023\P1 Code.X\newpic_8b_general.asm
              show_blue_m   0x001076    program     static C:\Users\tinom\OneDrive\Desktop\EMK310\Practical 1 2023\P1 Code.X\newpic_8b_general.asm
             show_green_m   0x001082    program     static C:\Users\tinom\OneDrive\Desktop\EMK310\Practical 1 2023\P1 Code.X\newpic_8b_general.asm
               show_red_m   0x00108e    program     static C:\Users\tinom\OneDrive\Desktop\EMK310\Practical 1 2023\P1 Code.X\newpic_8b_general.asm
             show_white_m   0x00109a    program     static C:\Users\tinom\OneDrive\Desktop\EMK310\Practical 1 2023\P1 Code.X\newpic_8b_general.asm
             show_black_r   0x0010a6    program     static C:\Users\tinom\OneDrive\Desktop\EMK310\Practical 1 2023\P1 Code.X\newpic_8b_general.asm
              show_blue_r   0x0010b2    program     static C:\Users\tinom\OneDrive\Desktop\EMK310\Practical 1 2023\P1 Code.X\newpic_8b_general.asm
             show_green_r   0x0010be    program     static C:\Users\tinom\OneDrive\Desktop\EMK310\Practical 1 2023\P1 Code.X\newpic_8b_general.asm
               show_red_r   0x0010ca    program     static C:\Users\tinom\OneDrive\Desktop\EMK310\Practical 1 2023\P1 Code.X\newpic_8b_general.asm
             show_white_r   0x0010d6    program     static C:\Users\tinom\OneDrive\Desktop\EMK310\Practical 1 2023\P1 Code.X\newpic_8b_general.asm
              clear_RGB_l   0x0010e2    program     static C:\Users\tinom\OneDrive\Desktop\EMK310\Practical 1 2023\P1 Code.X\newpic_8b_general.asm
              clear_RGB_m   0x0010ee    program     static C:\Users\tinom\OneDrive\Desktop\EMK310\Practical 1 2023\P1 Code.X\newpic_8b_general.asm
              clear_RGB_r   0x0010fa    program     static C:\Users\tinom\OneDrive\Desktop\EMK310\Practical 1 2023\P1 Code.X\newpic_8b_general.asm


